target datalayout = "e-m:e-p270:32:32-p271:32:32-p272:64:64-i64:64-i128:128-f80:128-n8:16:32:64-S128"
target triple = "x86_64-pc-linux-gnu"

; Function Attrs: mustprogress nounwind uwtable
define linkonce_odr void @_ZSt9__fill_a1IPddEN9__gnu_cxx11__enable_ifIXsr11__is_scalarIT0_EE7__valueEvE6__typeET_S6_RKS3_(ptr noundef %0, ptr noundef %1, ptr noundef nonnull align 8 dereferenceable(8) %2) #1 comdat {
  %4 = alloca ptr, align 8
  %5 = alloca ptr, align 8
  %6 = alloca ptr, align 8
  %7 = alloca double, align 8
  store ptr %0, ptr %4, align 8
  store ptr %1, ptr %5, align 8
  store ptr %2, ptr %6, align 8
  %8 = load ptr, ptr %6, align 8
  %9 = load double, ptr %8, align 8
  store double %9, ptr %7, align 8
  br label %10

10:                                               ; preds = %17, %3
  %11 = load ptr, ptr %4, align 8
  %12 = load ptr, ptr %5, align 8
  %13 = icmp ne ptr %11, %12
  br i1 %13, label %14, label %20

14:                                               ; preds = %10
  %15 = load double, ptr %7, align 8
  %16 = load ptr, ptr %4, align 8
  store double %15, ptr %16, align 8
  br label %17

17:                                               ; preds = %14
  %18 = load ptr, ptr %4, align 8
  %19 = getelementptr inbounds double, ptr %18, i32 1
  store ptr %19, ptr %4, align 8
  br label %10, !llvm.loop !16

20:                                               ; preds = %10
  ret void
}

; Function Attrs: mustprogress uwtable
define linkonce_odr void @_ZSt8__fill_aIPddEvT_S1_RKT0_(ptr noundef %0, ptr noundef %1, ptr noundef nonnull align 8 dereferenceable(8) %2) #2 comdat {
  %4 = alloca ptr, align 8
  %5 = alloca ptr, align 8
  %6 = alloca ptr, align 8
  store ptr %0, ptr %4, align 8
  store ptr %1, ptr %5, align 8
  store ptr %2, ptr %6, align 8
  %7 = load ptr, ptr %4, align 8
  %8 = load ptr, ptr %5, align 8
  %9 = load ptr, ptr %6, align 8
  call void @_ZSt9__fill_a1IPddEN9__gnu_cxx11__enable_ifIXsr11__is_scalarIT0_EE7__valueEvE6__typeET_S6_RKS3_(ptr noundef %7, ptr noundef %8, ptr noundef nonnull align 8 dereferenceable(8) %9)
  ret void
}

; Function Attrs: mustprogress nounwind uwtable
define linkonce_odr noundef double @_ZSt3absd(double noundef %0) #1 comdat {
  %2 = alloca double, align 8
  store double %0, ptr %2, align 8
  %3 = load double, ptr %2, align 8
  %4 = call double @llvm.fabs.f64(double %3)
  ret double %4
}

; Function Attrs: mustprogress uwtable
define linkonce_odr noundef ptr @_ZSt10__fill_n_aIPdidET_S1_T0_RKT1_St26random_access_iterator_tag(ptr noundef %0, i32 noundef %1, ptr noundef nonnull align 8 dereferenceable(8) %2) #2 comdat {
  %4 = alloca ptr, align 8
  %5 = alloca ptr, align 8
  %6 = alloca i32, align 4
  %7 = alloca ptr, align 8
  store ptr %0, ptr %5, align 8
  store i32 %1, ptr %6, align 4
  store ptr %2, ptr %7, align 8
  %8 = load i32, ptr %6, align 4
  %9 = icmp sle i32 %8, 0
  br i1 %9, label %10, label %12

10:                                               ; preds = %3
  %11 = load ptr, ptr %5, align 8
  store ptr %11, ptr %4, align 8
  br label %23

12:                                               ; preds = %3
  %13 = load ptr, ptr %5, align 8
  %14 = load ptr, ptr %5, align 8
  %15 = load i32, ptr %6, align 4
  %16 = sext i32 %15 to i64
  %17 = getelementptr inbounds double, ptr %14, i64 %16
  %18 = load ptr, ptr %7, align 8
  call void @_ZSt8__fill_aIPddEvT_S1_RKT0_(ptr noundef %13, ptr noundef %17, ptr noundef nonnull align 8 dereferenceable(8) %18)
  %19 = load ptr, ptr %5, align 8
  %20 = load i32, ptr %6, align 4
  %21 = sext i32 %20 to i64
  %22 = getelementptr inbounds double, ptr %19, i64 %21
  store ptr %22, ptr %4, align 8
  br label %23

23:                                               ; preds = %12, %10
  %24 = load ptr, ptr %4, align 8
  ret ptr %24
}

; Function Attrs: mustprogress nounwind uwtable
define linkonce_odr void @_ZSt19__iterator_categoryIPdENSt15iterator_traitsIT_E17iterator_categoryERKS2_(ptr noundef nonnull align 8 dereferenceable(8) %0) #1 comdat {
  %2 = alloca ptr, align 8
  store ptr %0, ptr %2, align 8
  ret void
}

; Function Attrs: mustprogress nounwind uwtable
define linkonce_odr noundef i32 @_ZSt17__size_to_integeri(i32 noundef %0) #1 comdat {
  %2 = alloca i32, align 4
  store i32 %0, ptr %2, align 4
  %3 = load i32, ptr %2, align 4
  ret i32 %3
}

; Function Attrs: mustprogress uwtable
define linkonce_odr noundef double @_ZSt8__hypot3IdET_S0_S0_S0_(double noundef %0, double noundef %1, double noundef %2) #2 comdat {
  %4 = alloca double, align 8
  %5 = alloca double, align 8
  %6 = alloca double, align 8
  %7 = alloca double, align 8
  %8 = alloca double, align 8
  store double %0, ptr %5, align 8
  store double %1, ptr %6, align 8
  store double %2, ptr %7, align 8
  %9 = load double, ptr %5, align 8
  %10 = call noundef double @_ZSt3absd(double noundef %9)
  store double %10, ptr %5, align 8
  %11 = load double, ptr %6, align 8
  %12 = call noundef double @_ZSt3absd(double noundef %11)
  store double %12, ptr %6, align 8
  %13 = load double, ptr %7, align 8
  %14 = call noundef double @_ZSt3absd(double noundef %13)
  store double %14, ptr %7, align 8
  %15 = load double, ptr %5, align 8
  %16 = load double, ptr %6, align 8
  %17 = fcmp olt double %15, %16
  br i1 %17, label %18, label %28

18:                                               ; preds = %3
  %19 = load double, ptr %6, align 8
  %20 = load double, ptr %7, align 8
  %21 = fcmp olt double %19, %20
  br i1 %21, label %22, label %24

22:                                               ; preds = %18
  %23 = load double, ptr %7, align 8
  br label %26

24:                                               ; preds = %18
  %25 = load double, ptr %6, align 8
  br label %26

26:                                               ; preds = %24, %22
  %27 = phi double [ %23, %22 ], [ %25, %24 ]
  br label %38

28:                                               ; preds = %3
  %29 = load double, ptr %5, align 8
  %30 = load double, ptr %7, align 8
  %31 = fcmp olt double %29, %30
  br i1 %31, label %32, label %34

32:                                               ; preds = %28
  %33 = load double, ptr %7, align 8
  br label %36

34:                                               ; preds = %28
  %35 = load double, ptr %5, align 8
  br label %36

36:                                               ; preds = %34, %32
  %37 = phi double [ %33, %32 ], [ %35, %34 ]
  br label %38

38:                                               ; preds = %36, %26
  %39 = phi double [ %27, %26 ], [ %37, %36 ]
  store double %39, ptr %8, align 8
  %40 = load double, ptr %8, align 8
  %41 = fcmp une double %40, 0.000000e+00
  br i1 %41, label %42, label %67

42:                                               ; preds = %38
  %43 = load double, ptr %8, align 8
  %44 = load double, ptr %5, align 8
  %45 = load double, ptr %8, align 8
  %46 = fdiv double %44, %45
  %47 = load double, ptr %5, align 8
  %48 = load double, ptr %8, align 8
  %49 = fdiv double %47, %48
  %50 = load double, ptr %6, align 8
  %51 = load double, ptr %8, align 8
  %52 = fdiv double %50, %51
  %53 = load double, ptr %6, align 8
  %54 = load double, ptr %8, align 8
  %55 = fdiv double %53, %54
  %56 = fmul double %52, %55
  %57 = call double @llvm.fmuladd.f64(double %46, double %49, double %56)
  %58 = load double, ptr %7, align 8
  %59 = load double, ptr %8, align 8
  %60 = fdiv double %58, %59
  %61 = load double, ptr %7, align 8
  %62 = load double, ptr %8, align 8
  %63 = fdiv double %61, %62
  %64 = call double @llvm.fmuladd.f64(double %60, double %63, double %57)
  %65 = call double @sqrt(double noundef %64) #13
  %66 = fmul double %43, %65
  store double %66, ptr %4, align 8
  br label %68

67:                                               ; preds = %38
  store double 0.000000e+00, ptr %4, align 8
  br label %68

68:                                               ; preds = %67, %42
  %69 = load double, ptr %4, align 8
  ret double %69
}

; Function Attrs: mustprogress uwtable
define linkonce_odr noundef ptr @_ZSt6fill_nIPdidET_S1_T0_RKT1_(ptr noundef %0, i32 noundef %1, ptr noundef nonnull align 8 dereferenceable(8) %2) #2 comdat {
  %4 = alloca ptr, align 8
  %5 = alloca i32, align 4
  %6 = alloca ptr, align 8
  store ptr %0, ptr %4, align 8
  store i32 %1, ptr %5, align 4
  store ptr %2, ptr %6, align 8
  %7 = load ptr, ptr %4, align 8
  %8 = load i32, ptr %5, align 4
  %9 = call noundef i32 @_ZSt17__size_to_integeri(i32 noundef %8)
  %10 = load ptr, ptr %6, align 8
  call void @_ZSt19__iterator_categoryIPdENSt15iterator_traitsIT_E17iterator_categoryERKS2_(ptr noundef nonnull align 8 dereferenceable(8) %4)
  %11 = call noundef ptr @_ZSt10__fill_n_aIPdidET_S1_T0_RKT1_St26random_access_iterator_tag(ptr noundef %7, i32 noundef %9, ptr noundef nonnull align 8 dereferenceable(8) %10)
  ret ptr %11
}

; Function Attrs: mustprogress nounwind uwtable
define linkonce_odr noundef i32 @_ZSt10fpclassifyd(double noundef %0) #1 comdat {
  %2 = alloca double, align 8
  store double %0, ptr %2, align 8
  %3 = load double, ptr %2, align 8
  %4 = fcmp oeq double %3, 0.000000e+00
  br i1 %4, label %5, label %7

5:                                                ; preds = %12, %9, %7, %1
  %6 = phi i32 [ 2, %1 ], [ 0, %7 ], [ 1, %9 ], [ %14, %12 ]
  ret i32 %6

7:                                                ; preds = %1
  %8 = fcmp uno double %3, %3
  br i1 %8, label %5, label %9

9:                                                ; preds = %7
  %10 = call double @llvm.fabs.f64(double %3) #23
  %11 = fcmp oeq double %10, 0x7FF0000000000000
  br i1 %11, label %5, label %12

12:                                               ; preds = %9
  %13 = fcmp uge double %10, 0x10000000000000
  %14 = select i1 %13, i32 4, i32 3
  br label %5
}

; Function Attrs: mustprogress uwtable
define linkonce_odr noundef double @_ZSt5hypotddd(double noundef %0, double noundef %1, double noundef %2) #2 comdat {
  %4 = alloca double, align 8
  %5 = alloca double, align 8
  %6 = alloca double, align 8
  store double %0, ptr %4, align 8
  store double %1, ptr %5, align 8
  store double %2, ptr %6, align 8
  %7 = load double, ptr %4, align 8
  %8 = load double, ptr %5, align 8
  %9 = load double, ptr %6, align 8
  %10 = call noundef double @_ZSt8__hypot3IdET_S0_S0_S0_(double noundef %7, double noundef %8, double noundef %9)
  ret double %10
}

; Function Attrs: mustprogress uwtable
define internal void @_ZN5ceres12_GLOBAL__N_119QuaternionMinusImplINS0_20EigenQuaternionOrderEEEvPKdS4_Pd(ptr noundef %0, ptr noundef %1, ptr noundef %2) #2 {
  %4 = alloca ptr, align 8
  %5 = alloca ptr, align 8
  %6 = alloca ptr, align 8
  %7 = alloca [4 x double], align 16
  %8 = alloca double, align 8
  %9 = alloca double, align 8
  %10 = alloca double, align 8
  store ptr %0, ptr %4, align 8
  store ptr %1, ptr %5, align 8
  store ptr %2, ptr %6, align 8
  %11 = load ptr, ptr %4, align 8
  %12 = getelementptr inbounds double, ptr %11, i64 3
  %13 = load double, ptr %12, align 8
  %14 = load ptr, ptr %5, align 8
  %15 = getelementptr inbounds double, ptr %14, i64 3
  %16 = load double, ptr %15, align 8
  %17 = load ptr, ptr %4, align 8
  %18 = getelementptr inbounds double, ptr %17, i64 0
  %19 = load double, ptr %18, align 8
  %20 = load ptr, ptr %5, align 8
  %21 = getelementptr inbounds double, ptr %20, i64 0
  %22 = load double, ptr %21, align 8
  %23 = fmul double %19, %22
  %24 = call double @llvm.fmuladd.f64(double %13, double %16, double %23)
  %25 = load ptr, ptr %4, align 8
  %26 = getelementptr inbounds double, ptr %25, i64 1
  %27 = load double, ptr %26, align 8
  %28 = load ptr, ptr %5, align 8
  %29 = getelementptr inbounds double, ptr %28, i64 1
  %30 = load double, ptr %29, align 8
  %31 = call double @llvm.fmuladd.f64(double %27, double %30, double %24)
  %32 = load ptr, ptr %4, align 8
  %33 = getelementptr inbounds double, ptr %32, i64 2
  %34 = load double, ptr %33, align 8
  %35 = load ptr, ptr %5, align 8
  %36 = getelementptr inbounds double, ptr %35, i64 2
  %37 = load double, ptr %36, align 8
  %38 = call double @llvm.fmuladd.f64(double %34, double %37, double %31)
  %39 = getelementptr inbounds [4 x double], ptr %7, i64 0, i64 3
  store double %38, ptr %39, align 8
  %40 = load ptr, ptr %4, align 8
  %41 = getelementptr inbounds double, ptr %40, i64 3
  %42 = load double, ptr %41, align 8
  %43 = fneg double %42
  %44 = load ptr, ptr %5, align 8
  %45 = getelementptr inbounds double, ptr %44, i64 0
  %46 = load double, ptr %45, align 8
  %47 = load ptr, ptr %4, align 8
  %48 = getelementptr inbounds double, ptr %47, i64 0
  %49 = load double, ptr %48, align 8
  %50 = load ptr, ptr %5, align 8
  %51 = getelementptr inbounds double, ptr %50, i64 3
  %52 = load double, ptr %51, align 8
  %53 = fmul double %49, %52
  %54 = call double @llvm.fmuladd.f64(double %43, double %46, double %53)
  %55 = load ptr, ptr %4, align 8
  %56 = getelementptr inbounds double, ptr %55, i64 1
  %57 = load double, ptr %56, align 8
  %58 = load ptr, ptr %5, align 8
  %59 = getelementptr inbounds double, ptr %58, i64 2
  %60 = load double, ptr %59, align 8
  %61 = fneg double %57
  %62 = call double @llvm.fmuladd.f64(double %61, double %60, double %54)
  %63 = load ptr, ptr %4, align 8
  %64 = getelementptr inbounds double, ptr %63, i64 2
  %65 = load double, ptr %64, align 8
  %66 = load ptr, ptr %5, align 8
  %67 = getelementptr inbounds double, ptr %66, i64 1
  %68 = load double, ptr %67, align 8
  %69 = call double @llvm.fmuladd.f64(double %65, double %68, double %62)
  %70 = getelementptr inbounds [4 x double], ptr %7, i64 0, i64 0
  store double %69, ptr %70, align 16
  %71 = load ptr, ptr %4, align 8
  %72 = getelementptr inbounds double, ptr %71, i64 3
  %73 = load double, ptr %72, align 8
  %74 = fneg double %73
  %75 = load ptr, ptr %5, align 8
  %76 = getelementptr inbounds double, ptr %75, i64 1
  %77 = load double, ptr %76, align 8
  %78 = load ptr, ptr %4, align 8
  %79 = getelementptr inbounds double, ptr %78, i64 0
  %80 = load double, ptr %79, align 8
  %81 = load ptr, ptr %5, align 8
  %82 = getelementptr inbounds double, ptr %81, i64 2
  %83 = load double, ptr %82, align 8
  %84 = fmul double %80, %83
  %85 = call double @llvm.fmuladd.f64(double %74, double %77, double %84)
  %86 = load ptr, ptr %4, align 8
  %87 = getelementptr inbounds double, ptr %86, i64 1
  %88 = load double, ptr %87, align 8
  %89 = load ptr, ptr %5, align 8
  %90 = getelementptr inbounds double, ptr %89, i64 3
  %91 = load double, ptr %90, align 8
  %92 = call double @llvm.fmuladd.f64(double %88, double %91, double %85)
  %93 = load ptr, ptr %4, align 8
  %94 = getelementptr inbounds double, ptr %93, i64 2
  %95 = load double, ptr %94, align 8
  %96 = load ptr, ptr %5, align 8
  %97 = getelementptr inbounds double, ptr %96, i64 0
  %98 = load double, ptr %97, align 8
  %99 = fneg double %95
  %100 = call double @llvm.fmuladd.f64(double %99, double %98, double %92)
  %101 = getelementptr inbounds [4 x double], ptr %7, i64 0, i64 1
  store double %100, ptr %101, align 8
  %102 = load ptr, ptr %4, align 8
  %103 = getelementptr inbounds double, ptr %102, i64 3
  %104 = load double, ptr %103, align 8
  %105 = fneg double %104
  %106 = load ptr, ptr %5, align 8
  %107 = getelementptr inbounds double, ptr %106, i64 2
  %108 = load double, ptr %107, align 8
  %109 = load ptr, ptr %4, align 8
  %110 = getelementptr inbounds double, ptr %109, i64 0
  %111 = load double, ptr %110, align 8
  %112 = load ptr, ptr %5, align 8
  %113 = getelementptr inbounds double, ptr %112, i64 1
  %114 = load double, ptr %113, align 8
  %115 = fmul double %111, %114
  %116 = fneg double %115
  %117 = call double @llvm.fmuladd.f64(double %105, double %108, double %116)
  %118 = load ptr, ptr %4, align 8
  %119 = getelementptr inbounds double, ptr %118, i64 1
  %120 = load double, ptr %119, align 8
  %121 = load ptr, ptr %5, align 8
  %122 = getelementptr inbounds double, ptr %121, i64 0
  %123 = load double, ptr %122, align 8
  %124 = call double @llvm.fmuladd.f64(double %120, double %123, double %117)
  %125 = load ptr, ptr %4, align 8
  %126 = getelementptr inbounds double, ptr %125, i64 2
  %127 = load double, ptr %126, align 8
  %128 = load ptr, ptr %5, align 8
  %129 = getelementptr inbounds double, ptr %128, i64 3
  %130 = load double, ptr %129, align 8
  %131 = call double @llvm.fmuladd.f64(double %127, double %130, double %124)
  %132 = getelementptr inbounds [4 x double], ptr %7, i64 0, i64 2
  store double %131, ptr %132, align 16
  %133 = getelementptr inbounds [4 x double], ptr %7, i64 0, i64 0
  %134 = load double, ptr %133, align 16
  %135 = getelementptr inbounds [4 x double], ptr %7, i64 0, i64 1
  %136 = load double, ptr %135, align 8
  %137 = getelementptr inbounds [4 x double], ptr %7, i64 0, i64 2
  %138 = load double, ptr %137, align 16
  %139 = call noundef double @_ZSt5hypotddd(double noundef %134, double noundef %136, double noundef %138)
  store double %139, ptr %8, align 8
  %140 = load double, ptr %8, align 8
  %141 = call noundef i32 @_ZSt10fpclassifyd(double noundef %140)
  %142 = icmp ne i32 %141, 2
  br i1 %142, label %143, label %172

143:                                              ; preds = %3
  %144 = load double, ptr %8, align 8
  %145 = getelementptr inbounds [4 x double], ptr %7, i64 0, i64 3
  %146 = load double, ptr %145, align 8
  %147 = call double @atan2(double noundef %144, double noundef %146) #13
  store double %147, ptr %9, align 8
  %148 = load double, ptr %9, align 8
  %149 = getelementptr inbounds [4 x double], ptr %7, i64 0, i64 0
  %150 = load double, ptr %149, align 16
  %151 = fmul double %148, %150
  %152 = load double, ptr %8, align 8
  %153 = fdiv double %151, %152
  %154 = load ptr, ptr %6, align 8
  %155 = getelementptr inbounds double, ptr %154, i64 0
  store double %153, ptr %155, align 8
  %156 = load double, ptr %9, align 8
  %157 = getelementptr inbounds [4 x double], ptr %7, i64 0, i64 1
  %158 = load double, ptr %157, align 8
  %159 = fmul double %156, %158
  %160 = load double, ptr %8, align 8
  %161 = fdiv double %159, %160
  %162 = load ptr, ptr %6, align 8
  %163 = getelementptr inbounds double, ptr %162, i64 1
  store double %161, ptr %163, align 8
  %164 = load double, ptr %9, align 8
  %165 = getelementptr inbounds [4 x double], ptr %7, i64 0, i64 2
  %166 = load double, ptr %165, align 16
  %167 = fmul double %164, %166
  %168 = load double, ptr %8, align 8
  %169 = fdiv double %167, %168
  %170 = load ptr, ptr %6, align 8
  %171 = getelementptr inbounds double, ptr %170, i64 2
  store double %169, ptr %171, align 8
  br label %175

172:                                              ; preds = %3
  %173 = load ptr, ptr %6, align 8
  store double 0.000000e+00, ptr %10, align 8
  %174 = call noundef ptr @_ZSt6fill_nIPdidET_S1_T0_RKT1_(ptr noundef %173, i32 noundef 3, ptr noundef nonnull align 8 dereferenceable(8) %10)
  br label %175

175:                                              ; preds = %172, %143
  ret void
}

; Function Attrs: mustprogress uwtable
define hidden noundef zeroext i1 @_ZNK5ceres23EigenQuaternionManifold5MinusEPKdS2_Pd(ptr noundef nonnull align 8 dereferenceable(8) %0, ptr noundef %1, ptr noundef %2, ptr noundef %3) unnamed_addr #2 align 2 {
  %5 = alloca ptr, align 8
  %6 = alloca ptr, align 8
  %7 = alloca ptr, align 8
  %8 = alloca ptr, align 8
  store ptr %0, ptr %5, align 8
  store ptr %1, ptr %6, align 8
  store ptr %2, ptr %7, align 8
  store ptr %3, ptr %8, align 8
  %9 = load ptr, ptr %6, align 8
  %10 = load ptr, ptr %7, align 8
  %11 = load ptr, ptr %8, align 8
  call void @_ZN5ceres12_GLOBAL__N_119QuaternionMinusImplINS0_20EigenQuaternionOrderEEEvPKdS4_Pd(ptr noundef %9, ptr noundef %10, ptr noundef %11)
  ret i1 true
}