; Function Attrs: mustprogress nofree nounwind willreturn memory(write, argmem: readwrite) uwtable
define hidden noundef zeroext i1 @_ZNK5ceres23EigenQuaternionManifold5MinusEPKdS2_Pd(ptr nocapture nonnull readnone align 8 %0, ptr nocapture noundef readonly %1, ptr nocapture noundef readonly %2, ptr nocapture noundef writeonly %3) unnamed_addr #10 align 2 {
  %5 = getelementptr inbounds i8, ptr %1, i64 24
  %6 = load double, ptr %5, align 8
  %7 = load double, ptr %1, align 8
  %8 = getelementptr inbounds i8, ptr %1, i64 8
  %9 = load double, ptr %8, align 8
  %10 = getelementptr inbounds i8, ptr %1, i64 16
  %11 = load double, ptr %10, align 8
  %12 = getelementptr inbounds i8, ptr %2, i64 16
  %13 = fneg double %6
  %14 = fneg double %9
  %15 = fneg double %11
  %16 = load <2 x double>, ptr %2, align 8
  %17 = shufflevector <2 x double> %16, <2 x double> poison, <2 x i32> <i32 1, i32 0>
  %18 = load <2 x double>, ptr %12, align 8
  %19 = insertelement <2 x double> poison, double %7, i64 0
  %20 = shufflevector <2 x double> %19, <2 x double> poison, <2 x i32> zeroinitializer
  %21 = fmul <2 x double> %20, %18
  %22 = shufflevector <2 x double> %21, <2 x double> poison, <2 x i32> <i32 1, i32 0>
  %23 = insertelement <2 x double> poison, double %13, i64 0
  %24 = shufflevector <2 x double> %23, <2 x double> poison, <2 x i32> zeroinitializer
  %25 = tail call <2 x double> @llvm.fmuladd.v2f64(<2 x double> %24, <2 x double> %16, <2 x double> %22)
  %26 = insertelement <2 x double> poison, double %14, i64 0
  %27 = insertelement <2 x double> %26, double %9, i64 1
  %28 = tail call <2 x double> @llvm.fmuladd.v2f64(<2 x double> %27, <2 x double> %18, <2 x double> %25)
  %29 = insertelement <2 x double> poison, double %11, i64 0
  %30 = insertelement <2 x double> %29, double %15, i64 1
  %31 = tail call <2 x double> @llvm.fmuladd.v2f64(<2 x double> %30, <2 x double> %17, <2 x double> %28)
  %32 = fneg double %7
  %33 = extractelement <2 x double> %16, i64 1
  %34 = fmul double %33, %32
  %35 = extractelement <2 x double> %18, i64 0
  %36 = tail call double @llvm.fmuladd.f64(double %13, double %35, double %34)
  %37 = extractelement <2 x double> %16, i64 0
  %38 = tail call double @llvm.fmuladd.f64(double %9, double %37, double %36)
  %39 = extractelement <2 x double> %18, i64 1
  %40 = tail call double @llvm.fmuladd.f64(double %11, double %39, double %38)
  %41 = tail call <2 x double> @llvm.fabs.v2f64(<2 x double> %31)
  %42 = tail call noundef double @llvm.fabs.f64(double %40)
  %43 = extractelement <2 x double> %41, i64 0
  %44 = extractelement <2 x double> %41, i64 1
  %45 = fcmp olt double %43, %44
  %..i.i.i = select i1 %45, double %44, double %43
  %46 = fcmp olt double %..i.i.i, %42
  %47 = select i1 %46, double %42, double %..i.i.i
  %48 = fcmp une double %47, 0.000000e+00
  br i1 %48, label %_ZSt5hypotddd.exit.i, label %_ZSt10fpclassifyd.exit.i

_ZSt5hypotddd.exit.i:                             ; preds = %4
  %49 = fdiv double %43, %47
  %50 = fdiv double %44, %47
  %51 = fmul double %50, %50
  %52 = tail call double @llvm.fmuladd.f64(double %49, double %49, double %51)
  %53 = fdiv double %42, %47
  %54 = tail call double @llvm.fmuladd.f64(double %53, double %53, double %52)
  %sqrt.i.i.i = tail call double @llvm.sqrt.f64(double %54)
  %55 = fmul double %47, %sqrt.i.i.i
  %56 = fcmp oeq double %55, 0.000000e+00
  br i1 %56, label %_ZSt10fpclassifyd.exit.i, label %57

57:                                               ; preds = %_ZSt5hypotddd.exit.i
  %58 = fmul double %7, %37
  %59 = tail call double @llvm.fmuladd.f64(double %6, double %39, double %58)
  %60 = tail call double @llvm.fmuladd.f64(double %9, double %33, double %59)
  %61 = tail call double @llvm.fmuladd.f64(double %11, double %35, double %60)
  %62 = tail call double @atan2(double noundef %55, double noundef %61) #29
  %63 = insertelement <2 x double> poison, double %62, i64 0
  %64 = shufflevector <2 x double> %63, <2 x double> poison, <2 x i32> zeroinitializer
  %65 = fmul <2 x double> %31, %64
  %66 = insertelement <2 x double> poison, double %55, i64 0
  %67 = shufflevector <2 x double> %66, <2 x double> poison, <2 x i32> zeroinitializer
  %68 = fdiv <2 x double> %65, %67
  store <2 x double> %68, ptr %3, align 8
  %69 = fmul double %40, %62
  %70 = fdiv double %69, %55
  %71 = getelementptr inbounds i8, ptr %3, i64 16
  store double %70, ptr %71, align 8
  br label %_ZN5ceres12_GLOBAL__N_119QuaternionMinusImplINS0_20EigenQuaternionOrderEEEvPKdS4_Pd.exit

_ZSt10fpclassifyd.exit.i:                         ; preds = %_ZSt5hypotddd.exit.i, %4
  tail call void @llvm.memset.p0.i64(ptr noundef nonnull align 8 dereferenceable(24) %3, i8 0, i64 24, i1 false)
  br label %_ZN5ceres12_GLOBAL__N_119QuaternionMinusImplINS0_20EigenQuaternionOrderEEEvPKdS4_Pd.exit

_ZN5ceres12_GLOBAL__N_119QuaternionMinusImplINS0_20EigenQuaternionOrderEEEvPKdS4_Pd.exit: ; preds = %57, %_ZSt10fpclassifyd.exit.i
  ret i1 true
}